target datalayout = "e-m:e-p270:32:32-p271:32:32-p272:64:64-i64:64-i128:128-f80:128-n8:16:32:64-S128"
target triple = "x86_64-pc-linux-gnu"

%struct.darktable_t = type { %struct.dt_codepath_t, i32, i32, ptr, ptr, ptr, ptr, ptr, ptr, ptr, ptr, ptr, ptr, ptr, ptr, ptr, ptr, ptr, ptr, ptr, ptr, ptr, ptr, ptr, ptr, ptr, ptr, ptr, ptr, ptr, [64 x %struct.dt_pthread_mutex_t], %struct.dt_pthread_mutex_t, %struct.dt_pthread_mutex_t, %struct.dt_pthread_mutex_t, %struct.dt_pthread_mutex_t, %struct.dt_pthread_mutex_t, ptr, ptr, ptr, ptr, ptr, ptr, ptr, ptr, ptr, ptr, ptr, ptr, ptr, %struct.dt_lua_state_t, ptr, double, ptr, i32, [47 x i32], i32, i32, ptr, ptr, %struct.dt_sys_resources_t, %struct.dt_backthumb_t, %struct.dt_gimp_t }
%struct.dt_codepath_t = type { i8, [3 x i8] }
%struct.dt_pthread_mutex_t = type { %union.pthread_mutex_t }
%union.pthread_mutex_t = type { %struct.__pthread_mutex_s }
%struct.__pthread_mutex_s = type { i32, i32, i32, i32, i32, i16, i16, %struct.__pthread_internal_list }
%struct.__pthread_internal_list = type { ptr, ptr }
%struct.dt_lua_state_t = type { i32 }
%struct.dt_sys_resources_t = type { i64, i64, ptr, ptr, i32 }
%struct.dt_backthumb_t = type { double, double, i32, i32, i32, i32 }
%struct.dt_gimp_t = type { i32, ptr, ptr, i32, i32 }
%struct._GdkRGBA = type { double, double, double, double }
%struct.dt_gui_gtk_t = type { ptr, %struct.dt_gui_widgets_t, %struct.dt_gui_scrollbars_t, i32, ptr, i32, [39 x %struct._GdkRGBA], i32, i32, i32, i32, i32, double, double, double, double, ptr, double, double, double, double, i32, i32, [4096 x i8], i32, i32, i32, %struct.dt_pthread_mutex_t }
%struct.dt_gui_widgets_t = type { ptr, ptr, ptr, ptr, i32, i32, i32 }
%struct.dt_gui_scrollbars_t = type { ptr, ptr, i32 }

@darktable = external global %struct.darktable_t, align 8
@.str.24 = private unnamed_addr constant [17 x i8] c"ui/hide_tooltips\00", align 1
@.str.193 = private unnamed_addr constant [13 x i8] c"tooltips off\00", align 1
@.str.194 = private unnamed_addr constant [12 x i8] c"tooltips on\00", align 1

; Function Attrs: nounwind uwtable
define internal void @_toggle_tooltip_visibility(ptr noundef %0) #0 {
  %2 = alloca ptr, align 8
  %3 = alloca i32, align 4
  store ptr %0, ptr %2, align 8, !tbaa !131
  call void @llvm.lifetime.start.p0(i64 4, ptr %3) #15
  %4 = call i32 @dt_conf_get_bool(ptr noundef @.str.24)
  %5 = icmp ne i32 %4, 0
  %6 = xor i1 %5, true
  %7 = zext i1 %6 to i32
  store i32 %7, ptr %3, align 4, !tbaa !17
  %8 = load i32, ptr %3, align 4, !tbaa !17
  call void @dt_conf_set_bool(ptr noundef @.str.24, i32 noundef %8)
  %9 = load i32, ptr %3, align 4, !tbaa !17
  %10 = icmp ne i32 %9, 0
  %11 = select i1 %10, i32 1, i32 -1
  %12 = load ptr, ptr getelementptr inbounds nuw (%struct.darktable_t, ptr @darktable, i32 0, i32 14), align 8, !tbaa !24
  %13 = getelementptr inbounds nuw %struct.dt_gui_gtk_t, ptr %12, i32 0, i32 7
  %14 = load i32, ptr %13, align 8, !tbaa !120
  %15 = add nsw i32 %14, %11
  store i32 %15, ptr %13, align 8, !tbaa !120
  %16 = load i32, ptr %3, align 4, !tbaa !17
  %17 = icmp ne i32 %16, 0
  br i1 %17, label %18, label %20

18:                                               ; preds = %1
  %19 = call ptr @dcgettext(ptr noundef null, ptr noundef @.str.193, i32 noundef 5) #15
  br label %22

20:                                               ; preds = %1
  %21 = call ptr @dcgettext(ptr noundef null, ptr noundef @.str.194, i32 noundef 5) #15
  br label %22

22:                                               ; preds = %20, %18
  %23 = phi ptr [ %19, %18 ], [ %21, %20 ]
  call void (ptr, ...) @dt_toast_log(ptr noundef %23)
  call void @llvm.lifetime.end.p0(i64 4, ptr %3) #15
  ret void
}