; Function Attrs: nounwind uwtable
define internal void @_toggle_tooltip_visibility(ptr readnone captures(none) %0) #0 {
  %2 = tail call i32 @dt_conf_get_bool(ptr noundef nonnull @.str.24) #18
  %.not = icmp eq i32 %2, 0
  %3 = zext i1 %.not to i32
  tail call void @dt_conf_set_bool(ptr noundef nonnull @.str.24, i32 noundef %3) #18
  %4 = select i1 %.not, i32 1, i32 -1
  %5 = load ptr, ptr getelementptr inbounds nuw (i8, ptr @darktable, i64 104), align 8, !tbaa !15
  %6 = getelementptr inbounds nuw i8, ptr %5, i64 1352
  %7 = load i32, ptr %6, align 8, !tbaa !95
  %8 = add nsw i32 %7, %4
  store i32 %8, ptr %6, align 8, !tbaa !95
  %.str.193..str.194 = select i1 %.not, ptr @.str.193, ptr @.str.194
  %9 = tail call ptr @dcgettext(ptr noundef null, ptr noundef nonnull %.str.193..str.194, i32 noundef 5) #18
  tail call void (ptr, ...) @dt_toast_log(ptr noundef %9) #18
  ret void
}